; Function Attrs: mustprogress nounwind ssp uwtable
define internal void @_ZNSt23_Sp_counted_ptr_inplaceIN6open3d8geometry12_GLOBAL__N_116BallPivotingEdgeESaIvELN9__gnu_cxx12_Lock_policyE2EE10_M_disposeEv(ptr noundef nonnull readonly align 8 captures(none) dereferenceable(72) %0) unnamed_addr #2 align 2 personality ptr @__gxx_personality_v0 {
  %2 = getelementptr inbounds nuw i8, ptr %0, i64 56
  %.val1.i.i = load ptr, ptr %2, align 8, !tbaa !67
  %.not.i.i.i.i = icmp eq ptr %.val1.i.i, null
  br i1 %.not.i.i.i.i, label %_ZNSt12__shared_ptrIN6open3d8geometry12_GLOBAL__N_120BallPivotingTriangleELN9__gnu_cxx12_Lock_policyE2EED2Ev.exit.i.i, label %3

3:                                                ; preds = %1
  %4 = getelementptr inbounds nuw i8, ptr %.val1.i.i, i64 8
  %5 = load atomic i64, ptr %4 acquire, align 8
  %6 = icmp eq i64 %5, 4294967297
  %7 = trunc i64 %5 to i32
  br i1 %6, label %8, label %16

8:                                                ; preds = %3
  store i32 0, ptr %4, align 8, !tbaa !49
  %9 = getelementptr inbounds nuw i8, ptr %.val1.i.i, i64 12
  store i32 0, ptr %9, align 4, !tbaa !55
  %10 = load ptr, ptr %.val1.i.i, align 8, !tbaa !4
  %11 = getelementptr inbounds nuw i8, ptr %10, i64 16
  %12 = load ptr, ptr %11, align 8
  tail call void %12(ptr noundef nonnull align 8 dereferenceable(16) %.val1.i.i) #33
  %13 = load ptr, ptr %.val1.i.i, align 8, !tbaa !4
  %14 = getelementptr inbounds nuw i8, ptr %13, i64 24
  %15 = load ptr, ptr %14, align 8
  tail call void %15(ptr noundef nonnull align 8 dereferenceable(16) %.val1.i.i) #33
  br label %_ZNSt12__shared_ptrIN6open3d8geometry12_GLOBAL__N_120BallPivotingTriangleELN9__gnu_cxx12_Lock_policyE2EED2Ev.exit.i.i

16:                                               ; preds = %3
  %17 = load i8, ptr @__libc_single_threaded, align 1, !tbaa !65
  %.not.i.i.i.i.i = icmp eq i8 %17, 0
  br i1 %.not.i.i.i.i.i, label %20, label %18

18:                                               ; preds = %16
  %19 = add nsw i32 %7, -1
  store i32 %19, ptr %4, align 4, !tbaa !98
  br label %_ZN9__gnu_cxx27__exchange_and_add_dispatchEPii.exit.i.i.i.i.i

20:                                               ; preds = %16
  %21 = atomicrmw volatile add ptr %4, i32 -1 acq_rel, align 4
  br label %_ZN9__gnu_cxx27__exchange_and_add_dispatchEPii.exit.i.i.i.i.i

_ZN9__gnu_cxx27__exchange_and_add_dispatchEPii.exit.i.i.i.i.i: ; preds = %20, %18
  %.0.i.i.i.i.i.i = phi i32 [ %7, %18 ], [ %21, %20 ]
  %22 = icmp eq i32 %.0.i.i.i.i.i.i, 1
  br i1 %22, label %23, label %_ZNSt12__shared_ptrIN6open3d8geometry12_GLOBAL__N_120BallPivotingTriangleELN9__gnu_cxx12_Lock_policyE2EED2Ev.exit.i.i, !prof !156

23:                                               ; preds = %_ZN9__gnu_cxx27__exchange_and_add_dispatchEPii.exit.i.i.i.i.i
  tail call void @_ZNSt16_Sp_counted_baseILN9__gnu_cxx12_Lock_policyE2EE24_M_release_last_use_coldEv(ptr noundef nonnull align 8 dereferenceable(16) %.val1.i.i) #33
  br label %_ZNSt12__shared_ptrIN6open3d8geometry12_GLOBAL__N_120BallPivotingTriangleELN9__gnu_cxx12_Lock_policyE2EED2Ev.exit.i.i

_ZNSt12__shared_ptrIN6open3d8geometry12_GLOBAL__N_120BallPivotingTriangleELN9__gnu_cxx12_Lock_policyE2EED2Ev.exit.i.i: ; preds = %23, %_ZN9__gnu_cxx27__exchange_and_add_dispatchEPii.exit.i.i.i.i.i, %8, %1
  %24 = getelementptr inbounds nuw i8, ptr %0, i64 40
  %.val.i.i = load ptr, ptr %24, align 8, !tbaa !67
  %.not.i.i2.i.i = icmp eq ptr %.val.i.i, null
  br i1 %.not.i.i2.i.i, label %_ZSt8_DestroyIN6open3d8geometry12_GLOBAL__N_116BallPivotingEdgeEEvPT_.exit, label %25

25:                                               ; preds = %_ZNSt12__shared_ptrIN6open3d8geometry12_GLOBAL__N_120BallPivotingTriangleELN9__gnu_cxx12_Lock_policyE2EED2Ev.exit.i.i
  %26 = getelementptr inbounds nuw i8, ptr %.val.i.i, i64 8
  %27 = load atomic i64, ptr %26 acquire, align 8
  %28 = icmp eq i64 %27, 4294967297
  %29 = trunc i64 %27 to i32
  br i1 %28, label %30, label %38

30:                                               ; preds = %25
  store i32 0, ptr %26, align 8, !tbaa !49
  %31 = getelementptr inbounds nuw i8, ptr %.val.i.i, i64 12
  store i32 0, ptr %31, align 4, !tbaa !55
  %32 = load ptr, ptr %.val.i.i, align 8, !tbaa !4
  %33 = getelementptr inbounds nuw i8, ptr %32, i64 16
  %34 = load ptr, ptr %33, align 8
  tail call void %34(ptr noundef nonnull align 8 dereferenceable(16) %.val.i.i) #33
  %35 = load ptr, ptr %.val.i.i, align 8, !tbaa !4
  %36 = getelementptr inbounds nuw i8, ptr %35, i64 24
  %37 = load ptr, ptr %36, align 8
  tail call void %37(ptr noundef nonnull align 8 dereferenceable(16) %.val.i.i) #33
  br label %_ZSt8_DestroyIN6open3d8geometry12_GLOBAL__N_116BallPivotingEdgeEEvPT_.exit

38:                                               ; preds = %25
  %39 = load i8, ptr @__libc_single_threaded, align 1, !tbaa !65
  %.not.i.i.i3.i.i = icmp eq i8 %39, 0
  br i1 %.not.i.i.i3.i.i, label %42, label %40

40:                                               ; preds = %38
  %41 = add nsw i32 %29, -1
  store i32 %41, ptr %26, align 4, !tbaa !98
  br label %_ZN9__gnu_cxx27__exchange_and_add_dispatchEPii.exit.i.i.i4.i.i

42:                                               ; preds = %38
  %43 = atomicrmw volatile add ptr %26, i32 -1 acq_rel, align 4
  br label %_ZN9__gnu_cxx27__exchange_and_add_dispatchEPii.exit.i.i.i4.i.i

_ZN9__gnu_cxx27__exchange_and_add_dispatchEPii.exit.i.i.i4.i.i: ; preds = %42, %40
  %.0.i.i.i.i5.i.i = phi i32 [ %29, %40 ], [ %43, %42 ]
  %44 = icmp eq i32 %.0.i.i.i.i5.i.i, 1
  br i1 %44, label %45, label %_ZSt8_DestroyIN6open3d8geometry12_GLOBAL__N_116BallPivotingEdgeEEvPT_.exit, !prof !156

45:                                               ; preds = %_ZN9__gnu_cxx27__exchange_and_add_dispatchEPii.exit.i.i.i4.i.i
  tail call void @_ZNSt16_Sp_counted_baseILN9__gnu_cxx12_Lock_policyE2EE24_M_release_last_use_coldEv(ptr noundef nonnull align 8 dereferenceable(16) %.val.i.i) #33
  br label %_ZSt8_DestroyIN6open3d8geometry12_GLOBAL__N_116BallPivotingEdgeEEvPT_.exit

_ZSt8_DestroyIN6open3d8geometry12_GLOBAL__N_116BallPivotingEdgeEEvPT_.exit: ; preds = %_ZNSt12__shared_ptrIN6open3d8geometry12_GLOBAL__N_120BallPivotingTriangleELN9__gnu_cxx12_Lock_policyE2EED2Ev.exit.i.i, %30, %_ZN9__gnu_cxx27__exchange_and_add_dispatchEPii.exit.i.i.i4.i.i, %45
  ret void
}